target datalayout = "e-m:e-p270:32:32-p271:32:32-p272:64:64-i64:64-i128:128-f80:128-n8:16:32:64-S128"
target triple = "x86_64-pc-linux-gnu"

@plugin_type = dso_local constant [17 x i8] c"proctrack/cgroup\00", align 16
@.str = private unnamed_addr constant [15 x i8] c"/proc/%ld/stat\00", align 1
@.str.1 = private unnamed_addr constant [48 x i8] c"%s: %s: unable to build pid '%d' stat file: %m \00", align 1
@__func__._slurm_cgroup_is_pid_a_slurm_task = private unnamed_addr constant [34 x i8] c"_slurm_cgroup_is_pid_a_slurm_task\00", align 1
@.str.2 = private unnamed_addr constant [34 x i8] c"%s: %s: unable to open '%s' : %m \00", align 1
@.str.3 = private unnamed_addr constant [34 x i8] c"%s: %s: unable to read '%s' : %m \00", align 1
@.str.4 = private unnamed_addr constant [15 x i8] c"%*d %*s %*s %d\00", align 1
@.str.5 = private unnamed_addr constant [43 x i8] c"%s: %s: unable to get ppid of pid '%d', %m\00", align 1

; Function Attrs: nounwind uwtable
define dso_local i32 @_slurm_cgroup_is_pid_a_slurm_task(i64 noundef %0, i32 noundef %1) #0 {
  %3 = alloca i32, align 4
  %4 = alloca i64, align 8
  %5 = alloca i32, align 4
  %6 = alloca i32, align 4
  %7 = alloca i32, align 4
  %8 = alloca i32, align 4
  %9 = alloca [4096 x i8], align 16
  %10 = alloca [2048 x i8], align 16
  %11 = alloca i32, align 4
  store i64 %0, ptr %4, align 8
  store i32 %1, ptr %5, align 4
  call void @llvm.lifetime.start.p0(i64 4, ptr %6) #5
  store i32 -1, ptr %6, align 4
  call void @llvm.lifetime.start.p0(i64 4, ptr %7) #5
  call void @llvm.lifetime.start.p0(i64 4, ptr %8) #5
  call void @llvm.lifetime.start.p0(i64 4096, ptr %9) #5
  call void @llvm.lifetime.start.p0(i64 2048, ptr %10) #5
  call void @llvm.memset.p0.i64(ptr align 16 %10, i8 0, i64 2048, i1 false)
  %12 = getelementptr inbounds [4096 x i8], ptr %9, i64 0, i64 0
  %13 = load i32, ptr %5, align 4
  %14 = sext i32 %13 to i64
  %15 = call i32 (ptr, i64, ptr, ...) @snprintf(ptr noundef %12, i64 noundef 4096, ptr noundef @.str, i64 noundef %14) #5
  %16 = icmp sge i32 %15, 4096
  br i1 %16, label %17, label %30

17:                                               ; preds = %2
  br label %18

18:                                               ; preds = %17
  br label %19

19:                                               ; preds = %18
  %20 = call i32 @get_log_level()
  %21 = icmp sge i32 %20, 6
  br i1 %21, label %22, label %24

22:                                               ; preds = %19
  %23 = load i32, ptr %5, align 4
  call void (i32, ptr, ...) @log_var(i32 noundef 6, ptr noundef @.str.1, ptr noundef @plugin_type, ptr noundef @__func__._slurm_cgroup_is_pid_a_slurm_task, i32 noundef %23)
  br label %24

24:                                               ; preds = %22, %19
  br label %25

25:                                               ; preds = %24
  br label %26

26:                                               ; preds = %25
  br label %27

27:                                               ; preds = %26
  br label %28

28:                                               ; preds = %27
  %29 = load i32, ptr %6, align 4
  store i32 %29, ptr %3, align 4
  store i32 1, ptr %11, align 4
  br label %95

30:                                               ; preds = %2
  %31 = getelementptr inbounds [4096 x i8], ptr %9, i64 0, i64 0
  %32 = call i32 (ptr, i32, ...) @open(ptr noundef %31, i32 noundef 0)
  store i32 %32, ptr %7, align 4
  %33 = icmp slt i32 %32, 0
  br i1 %33, label %34, label %47

34:                                               ; preds = %30
  br label %35

35:                                               ; preds = %34
  br label %36

36:                                               ; preds = %35
  %37 = call i32 @get_log_level()
  %38 = icmp sge i32 %37, 6
  br i1 %38, label %39, label %41

39:                                               ; preds = %36
  %40 = getelementptr inbounds [4096 x i8], ptr %9, i64 0, i64 0
  call void (i32, ptr, ...) @log_var(i32 noundef 6, ptr noundef @.str.2, ptr noundef @plugin_type, ptr noundef @__func__._slurm_cgroup_is_pid_a_slurm_task, ptr noundef %40)
  br label %41

41:                                               ; preds = %39, %36
  br label %42

42:                                               ; preds = %41
  br label %43

43:                                               ; preds = %42
  br label %44

44:                                               ; preds = %43
  br label %45

45:                                               ; preds = %44
  %46 = load i32, ptr %6, align 4
  store i32 %46, ptr %3, align 4
  store i32 1, ptr %11, align 4
  br label %95

47:                                               ; preds = %30
  %48 = load i32, ptr %7, align 4
  %49 = getelementptr inbounds [2048 x i8], ptr %10, i64 0, i64 0
  %50 = call i64 @read(i32 noundef %48, ptr noundef %49, i64 noundef 2048)
  %51 = icmp sle i64 %50, 0
  br i1 %51, label %52, label %67

52:                                               ; preds = %47
  br label %53

53:                                               ; preds = %52
  br label %54

54:                                               ; preds = %53
  %55 = call i32 @get_log_level()
  %56 = icmp sge i32 %55, 6
  br i1 %56, label %57, label %59

57:                                               ; preds = %54
  %58 = getelementptr inbounds [4096 x i8], ptr %9, i64 0, i64 0
  call void (i32, ptr, ...) @log_var(i32 noundef 6, ptr noundef @.str.3, ptr noundef @plugin_type, ptr noundef @__func__._slurm_cgroup_is_pid_a_slurm_task, ptr noundef %58)
  br label %59

59:                                               ; preds = %57, %54
  br label %60

60:                                               ; preds = %59
  br label %61

61:                                               ; preds = %60
  br label %62

62:                                               ; preds = %61
  br label %63

63:                                               ; preds = %62
  %64 = load i32, ptr %7, align 4
  %65 = call i32 @close(i32 noundef %64)
  %66 = load i32, ptr %6, align 4
  store i32 %66, ptr %3, align 4
  store i32 1, ptr %11, align 4
  br label %95

67:                                               ; preds = %47
  %68 = load i32, ptr %7, align 4
  %69 = call i32 @close(i32 noundef %68)
  %70 = getelementptr inbounds [2048 x i8], ptr %10, i64 0, i64 0
  %71 = call i32 (ptr, ptr, ...) @__isoc99_sscanf(ptr noundef %70, ptr noundef @.str.4, ptr noundef %8) #5
  %72 = icmp ne i32 %71, 1
  br i1 %72, label %73, label %86

73:                                               ; preds = %67
  br label %74

74:                                               ; preds = %73
  br label %75

75:                                               ; preds = %74
  %76 = call i32 @get_log_level()
  %77 = icmp sge i32 %76, 6
  br i1 %77, label %78, label %80

78:                                               ; preds = %75
  %79 = load i32, ptr %5, align 4
  call void (i32, ptr, ...) @log_var(i32 noundef 6, ptr noundef @.str.5, ptr noundef @plugin_type, ptr noundef @__func__._slurm_cgroup_is_pid_a_slurm_task, i32 noundef %79)
  br label %80

80:                                               ; preds = %78, %75
  br label %81

81:                                               ; preds = %80
  br label %82

82:                                               ; preds = %81
  br label %83

83:                                               ; preds = %82
  br label %84

84:                                               ; preds = %83
  %85 = load i32, ptr %6, align 4
  store i32 %85, ptr %3, align 4
  store i32 1, ptr %11, align 4
  br label %95

86:                                               ; preds = %67
  %87 = load i32, ptr %8, align 4
  %88 = load i64, ptr %4, align 8
  %89 = trunc i64 %88 to i32
  %90 = icmp eq i32 %87, %89
  br i1 %90, label %91, label %92

91:                                               ; preds = %86
  store i32 1, ptr %6, align 4
  br label %93

92:                                               ; preds = %86
  store i32 0, ptr %6, align 4
  br label %93

93:                                               ; preds = %92, %91
  %94 = load i32, ptr %6, align 4
  store i32 %94, ptr %3, align 4
  store i32 1, ptr %11, align 4
  br label %95

95:                                               ; preds = %93, %84, %63, %45, %28
  call void @llvm.lifetime.end.p0(i64 2048, ptr %10) #5
  call void @llvm.lifetime.end.p0(i64 4096, ptr %9) #5
  call void @llvm.lifetime.end.p0(i64 4, ptr %8) #5
  call void @llvm.lifetime.end.p0(i64 4, ptr %7) #5
  call void @llvm.lifetime.end.p0(i64 4, ptr %6) #5
  %96 = load i32, ptr %3, align 4
  ret i32 %96
}