; Function Attrs: nounwind uwtable
define dso_local range(i32 -1, 2) i32 @_slurm_cgroup_is_pid_a_slurm_task(i64 noundef %0, i32 noundef %1) local_unnamed_addr #0 {
  %3 = alloca i32, align 4
  %4 = alloca [4096 x i8], align 16
  %5 = alloca [2048 x i8], align 16
  call void @llvm.lifetime.start.p0(i64 4, ptr nonnull %3) #8
  call void @llvm.lifetime.start.p0(i64 4096, ptr nonnull %4) #8
  call void @llvm.lifetime.start.p0(i64 2048, ptr nonnull %5) #8
  call void @llvm.memset.p0.i64(ptr noundef nonnull align 16 dereferenceable(2048) %5, i8 0, i64 2048, i1 false)
  %6 = sext i32 %1 to i64
  %7 = call i32 (ptr, i64, ptr, ...) @snprintf(ptr noundef nonnull dereferenceable(1) %4, i64 noundef 4096, ptr noundef nonnull @.str, i64 noundef %6) #8
  %8 = icmp sgt i32 %7, 4095
  br i1 %8, label %9, label %13

9:                                                ; preds = %2
  %10 = tail call i32 @get_log_level() #8
  %11 = icmp sgt i32 %10, 5
  br i1 %11, label %12, label %40

12:                                               ; preds = %9
  tail call void (i32, ptr, ...) @log_var(i32 noundef 6, ptr noundef nonnull @.str.1, ptr noundef nonnull @plugin_type, ptr noundef nonnull @__func__._slurm_cgroup_is_pid_a_slurm_task, i32 noundef %1) #8
  br label %40

13:                                               ; preds = %2
  %14 = call i32 (ptr, i32, ...) @open(ptr noundef nonnull %4, i32 noundef 0) #8
  %15 = icmp slt i32 %14, 0
  br i1 %15, label %16, label %20

16:                                               ; preds = %13
  %17 = tail call i32 @get_log_level() #8
  %18 = icmp sgt i32 %17, 5
  br i1 %18, label %19, label %40

19:                                               ; preds = %16
  call void (i32, ptr, ...) @log_var(i32 noundef 6, ptr noundef nonnull @.str.2, ptr noundef nonnull @plugin_type, ptr noundef nonnull @__func__._slurm_cgroup_is_pid_a_slurm_task, ptr noundef nonnull %4) #8
  br label %40

20:                                               ; preds = %13
  %21 = call i64 @read(i32 noundef %14, ptr noundef nonnull %5, i64 noundef 2048) #8
  %22 = icmp slt i64 %21, 1
  br i1 %22, label %23, label %29

23:                                               ; preds = %20
  %24 = tail call i32 @get_log_level() #8
  %25 = icmp sgt i32 %24, 5
  br i1 %25, label %26, label %27

26:                                               ; preds = %23
  call void (i32, ptr, ...) @log_var(i32 noundef 6, ptr noundef nonnull @.str.3, ptr noundef nonnull @plugin_type, ptr noundef nonnull @__func__._slurm_cgroup_is_pid_a_slurm_task, ptr noundef nonnull %4) #8
  br label %27

27:                                               ; preds = %26, %23
  %28 = call i32 @close(i32 noundef %14) #8
  br label %40

29:                                               ; preds = %20
  %30 = tail call i32 @close(i32 noundef %14) #8
  %31 = call i32 (ptr, ptr, ...) @__isoc99_sscanf(ptr noundef nonnull %5, ptr noundef nonnull @.str.4, ptr noundef nonnull %3) #8
  %.not = icmp eq i32 %31, 1
  br i1 %.not, label %36, label %32

32:                                               ; preds = %29
  %33 = call i32 @get_log_level() #8
  %34 = icmp sgt i32 %33, 5
  br i1 %34, label %35, label %40

35:                                               ; preds = %32
  call void (i32, ptr, ...) @log_var(i32 noundef 6, ptr noundef nonnull @.str.5, ptr noundef nonnull @plugin_type, ptr noundef nonnull @__func__._slurm_cgroup_is_pid_a_slurm_task, i32 noundef %1) #8
  br label %40

36:                                               ; preds = %29
  %37 = load i32, ptr %3, align 4
  %38 = trunc i64 %0 to i32
  %39 = icmp eq i32 %37, %38
  %. = zext i1 %39 to i32
  br label %40

40:                                               ; preds = %32, %35, %16, %19, %9, %12, %36, %27
  %.0 = phi i32 [ -1, %27 ], [ %., %36 ], [ -1, %12 ], [ -1, %9 ], [ -1, %19 ], [ -1, %16 ], [ -1, %35 ], [ -1, %32 ]
  call void @llvm.lifetime.end.p0(i64 2048, ptr nonnull %5) #8
  call void @llvm.lifetime.end.p0(i64 4096, ptr nonnull %4) #8
  call void @llvm.lifetime.end.p0(i64 4, ptr nonnull %3) #8
  ret i32 %.0
}